(dp0
S'searchable'
p1
F168.65247018739353
sS'rob'
p2
F182.31860036832413
sS'apts'
p3
F14142.714285714286
sS'deadline'
p4
F76.98211508553655
sS'edu'
p5
F3.4560656310001745
sS'dish'
p6
F585.792899408284
sS'widrow'
p7
F6599.933333333333
sS'row'
p8
F162.02782324058919
sS'ballet'
p9
F811.4672131147541
sS'hunting'
p10
F883.9196428571429
sS'graph'
p11
F182.99260628465805
sS'courserank'
p12
F4949.95
sS'gsb'
p13
F40.84117161716171
sS'program'
p14
F4.274568221070812
sS'cs244b'
p15
F19799.8
sS'steve'
p16
F85.93663194444444
sS'school'
p17
F4.742467065868263
sS'knight'
p18
F98.40854870775348
sS'companies'
p19
F26.32252060622175
sS'solution'
p20
F70.5623663578047
sS'assignments'
p21
F87.92095914742451
sS'fogg'
p22
F1192.7590361445782
sS'stanfordwho'
p23
F40.424254797876685
sS'mo'
p24
F211.98929336188436
sS'opencourseware'
p25
F19799.8
sS'fixit'
p26
F7071.357142857143
sS'pandu'
p27
F19799.8
sS'pasu'
p28
F4304.304347826087
sS'video'
p29
F13.723177155530912
sS'specs'
p30
F1302.6184210526317
sS'vmware'
p31
F1546.859375
sS'cs255'
p32
F32999.666666666664
sS'certificates'
p33
F678.0753424657535
sS'international'
p34
F8.340972280731316
sS'med'
p35
F122.07028360049321
sS'flo'
p36
F2675.6486486486488
sS'exchange'
p37
F73.87985074626866
sS'avery'
p38
F961.1553398058253
sS'hours'
p39
F19.419183993723028
sS'explore'
p40
F25.65405545478103
sS'studio'
p41
F161.23615635179152
sS'lev'
p42
F456.2165898617512
sS'jure'
p43
F824.9916666666667
sS'graduates'
p44
F142.85569985569987
sS'change'
p45
F16.51634968301635
sS'alto'
p46
F47.57280153772225
sS'search'
p47
F2.693777040080542
sS'dembo'
p48
F3959.96
sS'30'
p49
F9.319307163701403
sS'lambertus'
p50
F4499.954545454545
sS'coho'
p51
F1799.9818181818182
sS'clark'
p52
F102.6960580912863
sS'mscs'
p53
F8249.916666666666
sS'levoy'
p54
F449.99545454545455
sS'backrub'
p55
F98999.0
sS'webmail'
p56
F380.7653846153846
sS'genomics'
p57
F245.65508684863525
sS'vlsi'
p58
F697.1760563380282
sS'live'
p59
F58.89292088042831
sS'annaud'
p60
F49499.5
sS'6'
p61
F7.649435944985319
sS'minor'
p62
F70.71357142857143
sS'cs224w'
p63
F6187.4375
sS'club'
p64
F58.54464813719692
sS'econ'
p65
F146.66518518518518
sS'award'
p66
F28.61242774566474
sS'it'
p67
F3.958218383911079
sS'admissions'
p68
F13.755592608031124
sS'linkedin'
p69
F85.49136442141624
sS'cs224n'
p70
F5499.944444444444
sS'hour'
p71
F43.804867256637166
sS'science'
p72
F6.244023967202775
sS'challenge'
p73
F65.25972313777191
sS'printing'
p74
F115.38344988344988
sS'ms'
p75
F37.74266107510484
sS'cal'
p76
F261.21108179419525
sS'my'
p77
F11.851909493595116
sS'process'
p78
F18.732071901608325
sS'tax'
p79
F110.73713646532438
sS'information'
p80
F3.35931455717679
sS'gcc'
p81
F673.4625850340136
sS'requirements'
p82
F17.438611942927604
sS'positional'
p83
F3193.516129032258
sS'maps'
p84
F8.236874947999002
sS'stanfordnlp'
p85
F98999.0
sS'quillen'
p86
F5499.944444444444
sS'cs210'
p87
F14142.714285714286
sS'afs'
p88
F202.45194274028628
sS'lam'
p89
F603.6524390243902
sS'buildings'
p90
F88.23440285204991
sS'kenpo'
p91
F4714.238095238095
sS'turing'
p92
F925.2242990654206
sS'lab'
p93
F12.580887025034947
sS'faculty'
p94
F3.96741874724482
sS'ethics'
p95
F75.9777436684574
sS'law'
p96
F10.82429477367155
sS'data'
p97
F7.6862577639751555
sS'leskovec'
p98
F831.9243697478992
sS'bing'
p99
F84.32623509369677
sS'claire'
p100
F540.9781420765028
sS'green'
p101
F20.505178127589065
sS'nvidia'
p102
F673.4625850340136
sS'retrieval'
p103
F337.8805460750853
sS'amir'
p104
F438.0486725663717
sS'marguerite'
p105
F153.7251552795031
sS'course'
p106
F13.552224503764545
sS'tagger'
p107
F5499.944444444444
sS'statistical'
p108
F108.67069154774973
sS'machine'
p109
F58.09800469483568
sS'tressider'
p110
F1434.768115942029
sS'monitor'
p111
F150.91310975609755
sS'platform'
p112
F82.43047460449625
sS'hutchin'
p113
F14142.714285714286
sS'mail'
p114
F9.193815007429421
sS'2010'
p115
F8.26713987473904
sS'2013'
p116
F93.74905303030303
sS'return'
p117
F20.75015719974848
sS'finance'
p118
F45.70590951061865
sS'ee364a'
p119
F2999.969696969697
sS'hall'
p120
F15.315439356435643
sS'masters'
p121
F127.41184041184042
sS'university'
p122
F1.745706224651737
sS'merge'
p123
F712.2230215827338
sS'token'
p124
F1253.1518987341772
sS'habits'
p125
F883.9196428571429
sS'meal'
p126
F543.9505494505495
sS'financial'
p127
F21.235306735306736
sS'306b'
p128
F32999.666666666664
sS'ee'
p129
F106.56512378902045
sS'list'
p130
F7.598357510169621
sS'webinar'
p131
F1207.3048780487804
sS'society'
p132
F22.053686789930943
sS'gates'
p133
F91.0754369825207
sS'motwani'
p134
F3193.516129032258
sS'ousterhout'
p135
F3413.7586206896553
sS'jackson'
p136
F104.53959873284055
sS'network'
p137
F19.275506230529594
sS'sentiment'
p138
F1979.98
sS'spcd'
p139
F49499.5
sS'research'
p140
F2.9510537454914
sS'fellowship'
p141
F33.84581196581197
sS'internet'
p142
F31.04390090937598
sS'windsurfing'
p143
F1903.826923076923
sS'math'
p144
F62.146264908976775
sS'branner'
p145
F116.05978898007034
sS'free'
p146
F14.181206130926801
sS'diagnostic'
p147
F197.20916334661354
sS'arrillaga'
p148
F242.64460784313727
sS'care'
p149
F20.162729124236254
sS'startx'
p150
F999.989898989899
sS'interaction'
p151
F61.26175742574257
sS'grad'
p152
F114.44971098265896
sS'raghavan'
p153
F3807.653846153846
sS'listings'
p154
F219.509977827051
sS'xiaoye'
p155
F1941.1568627450981
sS'david'
p156
F19.264253745864956
sS'cs262'
p157
F49499.5
sS'massive'
p158
F327.8112582781457
sS'museum'
p159
F94.64531548757171
sS'major'
p160
F20.522180762852404
sS'graduate'
p161
F7.928800256287041
sS'cs231b'
p162
F98999.0
sS'koller'
p163
F891.8828828828829
sS'spanish'
p164
F128.40337224383916
sS'open'
p165
F12.217573738121683
sS'sheet'
p166
F109.02973568281938
sS'tibshirani'
p167
F1356.150684931507
sS'master'
p168
F75.22720364741642
sS'john'
p169
F15.819590923617769
sS'bechtel'
p170
F82.63689482470785
sS'mining'
p171
F290.31964809384164
sS'gear'
p172
F556.1741573033707
sS'dschool'
p173
F2474.975
sS'gym'
p174
F1178.5595238095239
sS'coursera'
p175
F49499.5
sS'gin'
p176
F7071.357142857143
sS'database'
p177
F23.376387249114522
sS'tree'
p178
F79.0095770151636
sS'classes'
p179
F26.59118990061778
sS'skilling'
p180
F831.9243697478992
sS'interactive'
p181
F68.65395284327323
sS'and'
p182
F1.2423170073661358
sS'explorecourses'
p183
F211.98929336188436
sS'selfop'
p184
F98999.0
sS'kevin'
p185
F135.4295485636115
sS'form'
p186
F13.416316574061526
sS'dining'
p187
F106.33619763694952
sS'cantor'
p188
F124.99873737373737
sS'online'
p189
F12.165028262472353
sS'ezproxy'
p190
F8999.90909090909
sS'scpd'
p191
F379.30651340996167
sS'axess'
p192
F56.76548165137615
sS'cs194'
p193
F14142.714285714286
sS'track'
p194
F48.198149951314505
sS'who'
p195
F7.8708061695023055
sS'quota'
p196
F1337.8243243243244
sS'plan'
p197
F25.49549317537986
sS'sheets'
p198
F300.90881458966567
sS'services'
p199
F9.013018936635106
sS'class'
p200
F12.837007261410788
sS'salary'
p201
F279.65819209039546
sS'latex'
p202
F388.2313725490196
sS'curis'
p203
F7615.307692307692
sS'professor'
p204
F10.536292039165602
sS'alumni'
p205
F6.323390393459377
sS'drive'
p206
F44.574065736154886
sS'cs229'
p207
F4499.954545454545
sS'cs228'
p208
F32999.666666666664
sS'professional'
p209
F29.72942942942943
sS'physics'
p210
F15.764171974522293
sS'bulletin'
p211
F47.23234732824427
sS'nlp'
p212
F462.6121495327103
sS'aquatic'
p213
F687.4930555555555
sS'certification'
p214
F227.583908045977
sS'vaden'
p215
F274.9972222222222
sS'radio'
p216
F107.14177489177489
sS'fear'
p217
F543.9505494505495
sS'staff'
p218
F4.919693882621876
sS'hesselink'
p219
F3807.653846153846
sS'bernard'
p220
F538.0380434782609
sS'monica'
p221
F249.99747474747474
sS'beat'
p222
F568.9597701149426
sS'neuroimaging'
p223
F925.2242990654206
sS'mehran'
p224
F1867.9056603773586
sS'christopher'
p225
F111.86327683615819
sS'ldm'
p226
F98999.0
sS'cs124'
p227
F32999.666666666664
sS'liu'
p228
F187.1436672967864
sS'ughb'
p229
F4714.238095238095
sS'undergrad'
p230
F128.90494791666666
sS'bay'
p231
F47.59567307692308
sS'cdc'
p232
F227.583908045977
sS'y2e2'
p233
F213.8207343412527
sS'wiki'
p234
F74.8857791225416
sS'concert'
p235
F227.583908045977
sS'intelligence'
p236
F93.30725730442978
sS'manning'
p237
F466.97641509433964
sS'computer'
p238
F10.774814976055724
sS'parking'
p239
F62.10727728983689
sS'calendar'
p240
F7.9116918404858945
sS'best'
p241
F23.58803907553014
sS'stats'
p242
F385.21011673151753
sS'cs155'
p243
F4949.95
sS'artificial'
p244
F108.07751091703057
sS'365'
p245
F182.6549815498155
sS'email'
p246
F4.9043396413355795
sS'jobs'
p247
F30.24717384662389
sS'exam'
p248
F151.14351145038168
sS'rajeev'
p249
F2357.1190476190477
sS'bosp'
p250
F2302.3023255813955
sS'job'
p251
F25.581136950904394
sS'huang'
p252
F66.89121621621622
sS'sushi'
p253
F2474.975
sS'meredith'
p254
F818.1735537190083
sS'mariachi'
p255
F4499.954545454545
sS'108'
p256
F303.67791411042947
sS'connection'
p257
F91.83580705009277
sS'cs229t'
p258
F98999.0
sS'login'
p259
F5.698768132627216
sS'etl'
p260
F1099.9888888888888
sS'wall'
p261
F107.49077090119435
sS'robotics'
p262
F127.57603092783505
sS'pos'
p263
F1192.7590361445782
sS'directions'
p264
F7.341960842479977
sS'learning'
p265
F19.163569492837784
sS'cs'
p266
F35.752618273745036
sS'undergraduate'
p267
F12.817063697566027
sS'lyman'
p268
F414.22175732217573
sS'marc'
p269
F151.14351145038168
sS'tiny'
p270
F445.94144144144144
sS'helicopter'
p271
F1903.826923076923
sS'cs276'
p272
F16499.833333333332
sS'468'
p273
F2302.3023255813955
sS'300c'
p274
F14142.714285714286
sS'bmi'
p275
F1337.8243243243244
sS'taube'
p276
F540.9781420765028
sS'andrew'
p277
F72.90058910162003
sS'textbook'
p278
F207.11087866108787
sS'161'
p279
F860.8608695652174
sS'sunet'
p280
F17.892463401409724
sS'e40'
p281
F32999.666666666664
sS'myvideosu'
p282
F32999.666666666664
sS'career'
p283
F22.10786065207682
sS'aquatics'
p284
F8249.916666666666
sS'aid'
p285
F46.369555035128805
sS'cemex'
p286
F791.992
sS'ir'
p287
F223.97963800904978
sS'site'
p288
F3.4202452927966833
sS'coterm'
p289
F471.4238095238095
sS'engr'
p290
F925.2242990654206
sS'design'
p291
F12.169514443761525
sS'media'
p292
F12.762537063297666
sS'icenter'
p293
F4304.304347826087
sS'quant'
p294
F3666.6296296296296
sS'knuth'
p295
F1207.3048780487804
sS'events'
p296
F3.9811396630071982
sS'status'
p297
F16.585525213603617
sS'independent'
p298
F66.04336224149434
sS'phd'
p299
F25.456158395474414
sS'chris'
p300
F72.05167394468704
sS'student'
p301
F6.322178938629542
sS'jujitsu'
p302
F4714.238095238095
sS'climbing'
p303
F540.9781420765028
sS'center'
p304
F3.2925036583743514
sS'programs'
p305
F5.623984548088394
sS'coursework'
p306
F82.84435146443515
sS'analysis'
p307
F15.308334621926704
sS'microtext'
p308
F149.99848484848485
sS'academic'
p309
F10.138146441372248
sS'contact'
p310
F2.076321308724832
sS'sets'
p311
F87.2237885462555
sS'the'
p312
F1.2106859400031795
sS'protege'
p313
F124.99873737373737
sS'summer'
p314
F21.634396853146853
sS'outdoor'
p315
F282.8542857142857
sS'364a'
p316
F19799.8
sS'human'
p317
F15.597762722546085
sS'ps1'
p318
F7071.357142857143
sS'addresses'
p319
F101.01938775510204
sS'web'
p320
F6.6625614105929065
sS'prabhakar'
p321
F1799.9818181818182
sS'cs198'
p322
F24749.75
sS'pharmacy'
p323
F407.40329218106996
sS'mcnamara'
p324
F2357.1190476190477
sS'snap'
p325
F692.3006993006993
sS'homework'
p326
F146.88278931750742
sS'acsss'
p327
F1736.8245614035088
sS'heer'
p328
F1112.3483146067415
sS'calypso'
p329
F7071.357142857143
sS'd'
p330
F9.878168030333267
sS'cardinal'
p331
F119.70858524788392
sS'cs246'
p332
F7071.357142857143
sS'auditorium'
p333
F53.16809881847476
sS'google'
p334
F14.387298357796832
sS'people'
p335
F4.562165898617511
sS'spring'
p336
F29.151648998822143
sS'cs227b'
p337
F19799.8
sS'library'
p338
F6.432683560753736
sS'donald'
p339
F167.22804054054055
sS'frisbee'
p340
F2675.6486486486488
sS'palm'
p341
F173.68245614035087
sS'110'
p342
F184.3556797020484
sS'palo'
p343
F47.94140435835351
sS'searchworks'
p344
F21.5543217940344
sS'for'
p345
F1.4393573713288748
sS'courses'
p346
F9.409656876722744
sS'noon'
p347
F131.99866666666668
sS'420'
p348
F196.4265873015873
sS'biology'
p349
F26.224900662251656
sS'schedule'
p350
F24.22883015173764
sS'corn'
p351
F853.4396551724138
sS'bj'
p352
F733.325925925926
sS'tuition'
p353
F102.48343685300208
sS'sulair'
p354
F17.44168428470754
sS'ontology'
p355
F118.9891826923077
sS'by'
p356
F1.8711890676092011
sS'meyer'
p357
F92.86960600375235
sS'cheriton'
p358
F1979.98
sS'certificate'
p359
F197.20916334661354
sS'netflix'
p360
F3535.6785714285716
sS'cs147'
p361
F8249.916666666666
sS'dollars'
p362
F318.3247588424437
sS'cs142'
p363
F8249.916666666666
sS'cs143'
p364
F8249.916666666666
sS'map'
p365
F6.954130373700478
sS'software'
p366
F15.706647628113597
sS'computational'
p367
F42.801124081279724
sS'daphne'
p368
F908.2477064220184
sS'area'
p369
F11.706160577036774
sS'housing'
p370
F64.70522875816994
sS'tennis'
p371
F562.4943181818181
sS'deadlines'
p372
F111.98981900452489
sS'bios'
p373
F478.256038647343
sS'handbook'
p374
F80.68378158109209
sS'stsa'
p375
F32999.666666666664
sS'biox'
p376
F1237.4875
sS'sahami'
p377
F1833.3148148148148
sS'boyd'
p378
F523.8042328042328
sS'560'
p379
F1237.4875
sS'murphy'
p380
F464.78403755868544
sS'hw'
p381
F510.3041237113402
sS'candes'
p382
F3666.6296296296296
sS'bookstore'
p383
F246.26616915422886
sS'229'
p384
F989.99
sS'reset'
p385
F438.0486725663717
sS'stanford'
p386
F1.3903768099658722
sS'glassdoor'
p387
F49499.5
sS'assu'
p388
F254.49614395886888
sS'stager'
p389
F5210.473684210527
sS'videos'
p390
F32.47998687664042
sS'ai'
p391
F209.74364406779662
sS'cs379c'
p392
F49499.5
sS'sublet'
p393
F49499.5
sS'engineering'
p394
F8.834463680171337
sS'at'
p395
F1.9450851720140676
sS'campus'
p396
F9.673539183115107
sS'cmos'
p397
F712.2230215827338
sS'ohs'
p398
F697.1760563380282
sS'mystanfordconnection'
p399
F16499.833333333332
sS'rains'
p400
F1064.505376344086
sS'40'
p401
F39.47328548644338
sS'ng'
p402
F223.47404063205417
sS'application'
p403
F19.495667585663647
sS'book'
p404
F12.185992122107336
sS'papers'
p405
F13.982909604519774
sS'lsjumb'
p406
F2605.2368421052633
sS'students'
p407
F4.201638231049996
sS'football'
p408
F510.3041237113402
sS'hcp'
p409
F4124.958333333333
sS'squash'
p410
F2249.9772727272725
sS'cs107'
p411
F3959.96
sS'stan'
p412
F607.3558282208589
sS'reservation'
p413
F299.9969696969697
sS'finals'
p414
F409.08677685950414
sS'pool'
p415
F279.65819209039546
sS'building'
p416
F8.919632399315253
sS'biorobotics'
p417
F14142.714285714286
sS'algorithm'
p418
F85.78769497400347
sS'grading'
p419
F228.1082949308756
sS'directory'
p420
F10.110191993464053
sS'commencement'
p421
F149.99848484848485
s.